target datalayout = "e-m:e-p270:32:32-p271:32:32-p272:64:64-i64:64-i128:128-f80:128-n8:16:32:64-S128"
target triple = "x86_64-pc-linux-gnu"

%"struct.std::_Rb_tree_key_compare" = type { %"struct.std::less" }
%"struct.std::less" = type { i8 }
%"struct.std::_Rb_tree_header" = type { %"struct.std::_Rb_tree_node_base", i64 }
%"struct.std::_Rb_tree_node_base" = type { i32, ptr, ptr, ptr }
%"struct.casadi::KinsolMemory" = type { %"struct.casadi::RootfinderMemory", ptr, ptr, ptr, ptr }
%"struct.casadi::RootfinderMemory" = type { %"struct.casadi::OracleMemory", ptr, ptr, i8, i32 }
%"struct.casadi::OracleMemory" = type { %"struct.casadi::FunctionMemory", ptr, ptr, ptr, ptr, %"class.std::vector.69" }
%"struct.casadi::FunctionMemory" = type { %"struct.casadi::ProtoFunctionMemory" }
%"struct.casadi::ProtoFunctionMemory" = type { %"class.std::map.64", ptr }
%"class.std::map.64" = type { %"class.std::_Rb_tree.65" }
%"class.std::_Rb_tree.65" = type { %"struct.std::_Rb_tree<std::__cxx11::basic_string<char>, std::pair<const std::__cxx11::basic_string<char>, casadi::FStats>, std::_Select1st<std::pair<const std::__cxx11::basic_string<char>, casadi::FStats>>, std::less<std::__cxx11::basic_string<char>>>::_Rb_tree_impl" }
%"struct.std::_Rb_tree<std::__cxx11::basic_string<char>, std::pair<const std::__cxx11::basic_string<char>, casadi::FStats>, std::_Select1st<std::pair<const std::__cxx11::basic_string<char>, casadi::FStats>>, std::less<std::__cxx11::basic_string<char>>>::_Rb_tree_impl" = type { %"struct.std::_Rb_tree_key_compare", %"struct.std::_Rb_tree_header" }
%"class.std::vector.69" = type { %"struct.std::_Vector_base.70" }
%"struct.std::_Vector_base.70" = type { %"struct.std::_Vector_base<casadi::LocalOracleMemory *, std::allocator<casadi::LocalOracleMemory *>>::_Vector_impl" }
%"struct.std::_Vector_base<casadi::LocalOracleMemory *, std::allocator<casadi::LocalOracleMemory *>>::_Vector_impl" = type { %"struct.std::_Vector_base<casadi::LocalOracleMemory *, std::allocator<casadi::LocalOracleMemory *>>::_Vector_impl_data" }
%"struct.std::_Vector_base<casadi::LocalOracleMemory *, std::allocator<casadi::LocalOracleMemory *>>::_Vector_impl_data" = type { ptr, ptr, ptr }
%struct.KINMemRec = type { double, ptr, ptr, double, double, i32, i32, i64, i64, i64, i64, i32, i32, i32, i32, i32, i32, i32, i32, i32, double, double, double, double, double, double, double, double, double, i32, double, i64, i64, i64, i64, i64, i64, i64, ptr, ptr, ptr, ptr, ptr, ptr, ptr, ptr, ptr, ptr, ptr, ptr, ptr, ptr, ptr, ptr, ptr, ptr, i64, i32, i32, i64, i64, i64, i64, ptr, ptr, ptr, ptr, i32, ptr, double, double, double, double, double, i32, double, double, double, i32, ptr, ptr, ptr, ptr, ptr, ptr }

@_ZTISt9exception = external constant ptr
@.str.95 = private unnamed_addr constant [16 x i8] c"lsolve failed: \00", align 1

; Function Attrs: mustprogress uwtable
define noundef i32 @_ZN6casadi15KinsolInterface6lsolveEP9KINMemRecP17_generic_N_VectorS4_PdS5_(ptr noundef %0, ptr noundef %1, ptr noundef %2, ptr noundef %3, ptr noundef %4) #4 align 2 personality ptr @__gxx_personality_v0 {
  %6 = alloca i32, align 4
  %7 = alloca ptr, align 8
  %8 = alloca ptr, align 8
  %9 = alloca ptr, align 8
  %10 = alloca ptr, align 8
  %11 = alloca ptr, align 8
  %12 = alloca ptr, align 8
  %13 = alloca ptr, align 8
  %14 = alloca i32, align 4
  %15 = alloca ptr, align 8
  %16 = alloca ptr, align 8
  %17 = alloca ptr, align 8
  %18 = alloca ptr, align 8
  %19 = alloca ptr, align 8
  %20 = alloca ptr, align 8
  %21 = alloca i32, align 4
  %22 = alloca ptr, align 8
  store ptr %0, ptr %7, align 8
  store ptr %1, ptr %8, align 8
  store ptr %2, ptr %9, align 8
  store ptr %3, ptr %10, align 8
  store ptr %4, ptr %11, align 8
  %23 = load ptr, ptr %7, align 8
  %24 = getelementptr inbounds %struct.KINMemRec, ptr %23, i32 0, i32 68
  %25 = load ptr, ptr %24, align 8
  %26 = invoke noundef ptr @_ZN6casadi15KinsolInterface6to_memEPv(ptr noundef %25)
          to label %27 unwind label %67

27:                                               ; preds = %5
  store ptr %26, ptr %12, align 8
  %28 = load ptr, ptr %12, align 8
  %29 = getelementptr inbounds %"struct.casadi::KinsolMemory", ptr %28, i32 0, i32 1
  %30 = load ptr, ptr %29, align 8
  store ptr %30, ptr %15, align 8
  %31 = load ptr, ptr %7, align 8
  %32 = getelementptr inbounds %struct.KINMemRec, ptr %31, i32 0, i32 38
  %33 = load ptr, ptr %32, align 8
  store ptr %33, ptr %16, align 8
  %34 = load ptr, ptr %7, align 8
  %35 = getelementptr inbounds %struct.KINMemRec, ptr %34, i32 0, i32 42
  %36 = load ptr, ptr %35, align 8
  store ptr %36, ptr %17, align 8
  %37 = load ptr, ptr %7, align 8
  %38 = getelementptr inbounds %struct.KINMemRec, ptr %37, i32 0, i32 40
  %39 = load ptr, ptr %38, align 8
  store ptr %39, ptr %18, align 8
  %40 = load ptr, ptr %7, align 8
  %41 = getelementptr inbounds %struct.KINMemRec, ptr %40, i32 0, i32 43
  %42 = load ptr, ptr %41, align 8
  store ptr %42, ptr %19, align 8
  %43 = load ptr, ptr %7, align 8
  %44 = getelementptr inbounds %struct.KINMemRec, ptr %43, i32 0, i32 46
  %45 = load ptr, ptr %44, align 8
  store ptr %45, ptr %20, align 8
  %46 = load ptr, ptr %9, align 8
  %47 = load ptr, ptr %8, align 8
  invoke void @N_VScale(double noundef 1.000000e+00, ptr noundef %46, ptr noundef %47)
          to label %48 unwind label %67

48:                                               ; preds = %27
  %49 = load ptr, ptr %15, align 8
  %50 = load ptr, ptr %12, align 8
  %51 = load ptr, ptr %16, align 8
  %52 = load ptr, ptr %17, align 8
  %53 = load ptr, ptr %18, align 8
  %54 = load ptr, ptr %19, align 8
  %55 = load ptr, ptr %8, align 8
  %56 = load ptr, ptr %20, align 8
  invoke void @_ZNK6casadi15KinsolInterface6psolveERNS_12KinsolMemoryEP17_generic_N_VectorS4_S4_S4_S4_S4_(ptr noundef nonnull align 8 dereferenceable(1696) %49, ptr noundef nonnull align 8 dereferenceable(168) %50, ptr noundef %51, ptr noundef %52, ptr noundef %53, ptr noundef %54, ptr noundef %55, ptr noundef %56)
          to label %57 unwind label %67

57:                                               ; preds = %48
  %58 = load ptr, ptr %7, align 8
  %59 = load ptr, ptr %8, align 8
  %60 = load ptr, ptr %9, align 8
  %61 = invoke i32 @KINSpilsAtimes(ptr noundef %58, ptr noundef %59, ptr noundef %60)
          to label %62 unwind label %67

62:                                               ; preds = %57
  store i32 %61, ptr %21, align 4
  %63 = load i32, ptr %21, align 4
  %64 = icmp ne i32 %63, 0
  br i1 %64, label %65, label %91

65:                                               ; preds = %62
  %66 = load i32, ptr %21, align 4
  store i32 %66, ptr %6, align 4
  br label %116

67:                                               ; preds = %104, %100, %95, %91, %57, %48, %27, %5
  %68 = landingpad { ptr, i32 }
          catch ptr @_ZTISt9exception
  %69 = extractvalue { ptr, i32 } %68, 0
  store ptr %69, ptr %13, align 8
  %70 = extractvalue { ptr, i32 } %68, 1
  store i32 %70, ptr %14, align 4
  br label %71

71:                                               ; preds = %67
  %72 = load i32, ptr %14, align 4
  %73 = call i32 @llvm.eh.typeid.for(ptr @_ZTISt9exception) #3
  %74 = icmp eq i32 %72, %73
  br i1 %74, label %75, label %118

75:                                               ; preds = %71
  %76 = load ptr, ptr %13, align 8
  %77 = call ptr @__cxa_begin_catch(ptr %76) #3
  store ptr %77, ptr %22, align 8
  %78 = invoke noundef nonnull align 8 dereferenceable(8) ptr @_ZN6casadi4uerrEv()
          to label %79 unwind label %110

79:                                               ; preds = %75
  %80 = invoke noundef nonnull align 8 dereferenceable(8) ptr @_ZStlsISt11char_traitsIcEERSt13basic_ostreamIcT_ES5_PKc(ptr noundef nonnull align 8 dereferenceable(8) %78, ptr noundef @.str.95)
          to label %81 unwind label %110

81:                                               ; preds = %79
  %82 = load ptr, ptr %22, align 8
  %83 = load ptr, ptr %82, align 8
  %84 = getelementptr inbounds ptr, ptr %83, i64 2
  %85 = load ptr, ptr %84, align 8
  %86 = call noundef ptr %85(ptr noundef nonnull align 8 dereferenceable(8) %82) #3
  %87 = invoke noundef nonnull align 8 dereferenceable(8) ptr @_ZStlsISt11char_traitsIcEERSt13basic_ostreamIcT_ES5_PKc(ptr noundef nonnull align 8 dereferenceable(8) %80, ptr noundef %86)
          to label %88 unwind label %110

88:                                               ; preds = %81
  %89 = invoke noundef nonnull align 8 dereferenceable(8) ptr @_ZNSolsEPFRSoS_E(ptr noundef nonnull align 8 dereferenceable(8) %87, ptr noundef @_ZSt4endlIcSt11char_traitsIcEERSt13basic_ostreamIT_T0_ES6_)
          to label %90 unwind label %110

90:                                               ; preds = %88
  store i32 -1, ptr %6, align 4
  call void @__cxa_end_catch()
  br label %116

91:                                               ; preds = %62
  %92 = load ptr, ptr %9, align 8
  %93 = load ptr, ptr %19, align 8
  %94 = invoke double @N_VWL2Norm(ptr noundef %92, ptr noundef %93)
          to label %95 unwind label %67

95:                                               ; preds = %91
  %96 = load ptr, ptr %10, align 8
  store double %94, ptr %96, align 8
  %97 = load ptr, ptr %9, align 8
  %98 = load ptr, ptr %19, align 8
  %99 = load ptr, ptr %9, align 8
  invoke void @N_VProd(ptr noundef %97, ptr noundef %98, ptr noundef %99)
          to label %100 unwind label %67

100:                                              ; preds = %95
  %101 = load ptr, ptr %9, align 8
  %102 = load ptr, ptr %19, align 8
  %103 = load ptr, ptr %9, align 8
  invoke void @N_VProd(ptr noundef %101, ptr noundef %102, ptr noundef %103)
          to label %104 unwind label %67

104:                                              ; preds = %100
  %105 = load ptr, ptr %18, align 8
  %106 = load ptr, ptr %9, align 8
  %107 = invoke double @N_VDotProd(ptr noundef %105, ptr noundef %106)
          to label %108 unwind label %67

108:                                              ; preds = %104
  %109 = load ptr, ptr %11, align 8
  store double %107, ptr %109, align 8
  store i32 0, ptr %6, align 4
  br label %116

110:                                              ; preds = %88, %81, %79, %75
  %111 = landingpad { ptr, i32 }
          cleanup
  %112 = extractvalue { ptr, i32 } %111, 0
  store ptr %112, ptr %13, align 8
  %113 = extractvalue { ptr, i32 } %111, 1
  store i32 %113, ptr %14, align 4
  invoke void @__cxa_end_catch()
          to label %114 unwind label %123

114:                                              ; preds = %110
  br label %118

115:                                              ; No predecessors!
  call void @llvm.trap()
  unreachable

116:                                              ; preds = %108, %90, %65
  %117 = load i32, ptr %6, align 4
  ret i32 %117

118:                                              ; preds = %114, %71
  %119 = load ptr, ptr %13, align 8
  %120 = load i32, ptr %14, align 4
  %121 = insertvalue { ptr, i32 } poison, ptr %119, 0
  %122 = insertvalue { ptr, i32 } %121, i32 %120, 1
  resume { ptr, i32 } %122

123:                                              ; preds = %110
  %124 = landingpad { ptr, i32 }
          catch ptr null
  %125 = extractvalue { ptr, i32 } %124, 0
  call void @__clang_call_terminate(ptr %125) #17
  unreachable
}