; Function Attrs: mustprogress uwtable
define noundef i32 @_ZN6casadi15KinsolInterface6lsolveEP9KINMemRecP17_generic_N_VectorS4_PdS5_(ptr noundef %0, ptr noundef %1, ptr noundef %2, ptr nocapture noundef writeonly %3, ptr nocapture noundef writeonly %4) #3 align 2 personality ptr @__gxx_personality_v0 {
  %6 = getelementptr inbounds i8, ptr %0, i64 496
  %7 = load ptr, ptr %6, align 8
  %8 = invoke noundef ptr @_ZN6casadi15KinsolInterface6to_memEPv(ptr noundef %7)
          to label %9 unwind label %20

9:                                                ; preds = %5
  %10 = getelementptr inbounds i8, ptr %8, i64 136
  %11 = load ptr, ptr %10, align 8
  %12 = getelementptr inbounds i8, ptr %0, i64 280
  %13 = load ptr, ptr %12, align 8
  %14 = getelementptr inbounds i8, ptr %0, i64 304
  %15 = load ptr, ptr %14, align 8
  invoke void @N_VScale(double noundef 1.000000e+00, ptr noundef %2, ptr noundef %1)
          to label %16 unwind label %20

16:                                               ; preds = %9
  invoke void @_ZNK6casadi15KinsolInterface6psolveERNS_12KinsolMemoryEP17_generic_N_VectorS4_S4_S4_S4_S4_(ptr noundef nonnull align 8 dereferenceable(1696) %11, ptr noundef nonnull align 8 dereferenceable(168) %8, ptr poison, ptr poison, ptr poison, ptr poison, ptr noundef %1, ptr poison)
          to label %17 unwind label %20

17:                                               ; preds = %16
  %18 = invoke i32 @KINSpilsAtimes(ptr noundef nonnull %0, ptr noundef %1, ptr noundef %2)
          to label %19 unwind label %20

19:                                               ; preds = %17
  %.not = icmp eq i32 %18, 0
  br i1 %.not, label %40, label %49

20:                                               ; preds = %44, %43, %42, %40, %17, %16, %9, %5
  %21 = landingpad { ptr, i32 }
          catch ptr @_ZTISt9exception
  %22 = extractvalue { ptr, i32 } %21, 1
  %23 = tail call i32 @llvm.eh.typeid.for(ptr nonnull @_ZTISt9exception) #19
  %24 = icmp eq i32 %22, %23
  br i1 %24, label %25, label %50

25:                                               ; preds = %20
  %26 = extractvalue { ptr, i32 } %21, 0
  %27 = tail call ptr @__cxa_begin_catch(ptr %26) #19
  %28 = invoke noundef nonnull align 8 dereferenceable(8) ptr @_ZN6casadi4uerrEv()
          to label %29 unwind label %47

29:                                               ; preds = %25
  %30 = invoke noundef nonnull align 8 dereferenceable(8) ptr @_ZStlsISt11char_traitsIcEERSt13basic_ostreamIcT_ES5_PKc(ptr noundef nonnull align 8 dereferenceable(8) %28, ptr noundef nonnull @.str.95)
          to label %31 unwind label %47

31:                                               ; preds = %29
  %32 = load ptr, ptr %27, align 8
  %33 = getelementptr inbounds i8, ptr %32, i64 16
  %34 = load ptr, ptr %33, align 8
  %35 = tail call noundef ptr %34(ptr noundef nonnull align 8 dereferenceable(8) %27) #19
  %36 = invoke noundef nonnull align 8 dereferenceable(8) ptr @_ZStlsISt11char_traitsIcEERSt13basic_ostreamIcT_ES5_PKc(ptr noundef nonnull align 8 dereferenceable(8) %30, ptr noundef %35)
          to label %37 unwind label %47

37:                                               ; preds = %31
  %38 = invoke noundef nonnull align 8 dereferenceable(8) ptr @_ZNSolsEPFRSoS_E(ptr noundef nonnull align 8 dereferenceable(8) %36, ptr noundef nonnull @_ZSt4endlIcSt11char_traitsIcEERSt13basic_ostreamIT_T0_ES6_)
          to label %39 unwind label %47

39:                                               ; preds = %37
  tail call void @__cxa_end_catch()
  br label %49

40:                                               ; preds = %19
  %41 = invoke double @N_VWL2Norm(ptr noundef %2, ptr noundef %15)
          to label %42 unwind label %20

42:                                               ; preds = %40
  store double %41, ptr %3, align 8
  invoke void @N_VProd(ptr noundef %2, ptr noundef %15, ptr noundef %2)
          to label %43 unwind label %20

43:                                               ; preds = %42
  invoke void @N_VProd(ptr noundef %2, ptr noundef %15, ptr noundef %2)
          to label %44 unwind label %20

44:                                               ; preds = %43
  %45 = invoke double @N_VDotProd(ptr noundef %13, ptr noundef %2)
          to label %46 unwind label %20

46:                                               ; preds = %44
  store double %45, ptr %4, align 8
  br label %49

47:                                               ; preds = %37, %31, %29, %25
  %48 = landingpad { ptr, i32 }
          cleanup
  invoke void @__cxa_end_catch()
          to label %50 unwind label %51

49:                                               ; preds = %19, %46, %39
  %.0 = phi i32 [ 0, %46 ], [ -1, %39 ], [ %18, %19 ]
  ret i32 %.0

50:                                               ; preds = %47, %20
  %.merged = phi { ptr, i32 } [ %48, %47 ], [ %21, %20 ]
  resume { ptr, i32 } %.merged

51:                                               ; preds = %47
  %52 = landingpad { ptr, i32 }
          catch ptr null
  %53 = extractvalue { ptr, i32 } %52, 0
  tail call void @__clang_call_terminate(ptr %53) #22
  unreachable
}